(dp1
S'419c0994-8c98-11e0-abea-005056b664f8'
p2
S'dfba'
p3
sS'5fe34ef8-8c96-11e0-9e67-005056b664f8'
p4
S'dfba'
p5
sS'55f6ad68-8c8e-11e0-ba8b-005056b664f8'
p6
S'dfba'
p7
sS'2f5155e8-8c8c-11e0-946d-005056b664f8'
p8
S'dfba'
p9
sS'e1ab7cc7-b493-11e0-8656-005056b644d7'
p10
S'dfba'
p11
sS'cd3e7dd1-9787-11e0-a30e-005056b664f8'
p12
S'dfba'
p13
sS'008a9230-b483-11e0-992e-005056b644d7'
p14
S'dfba'
p15
sS'b587ee0c-b484-11e0-87d0-005056b664f8'
p16
S'dfba'
p17
sS'35013c3d-b47e-11e0-b1e2-005056b664f8'
p18
S'dfba'
p19
sS'6f46f67d-9d0c-11e0-a257-005056b644d7'
p20
S'dfba'
p21
sS'474349a8-9787-11e0-b52f-005056b664f8'
p22
S'dfba'
p23
sS'2cf29782-8c8d-11e0-a2ca-005056b664f8'
p24
S'dfba'
p25
sS'890e58e8-b47f-11e0-aae8-005056b644d7'
p26
S'dfba'
p27
sS'4c501a19-8c98-11e0-adb7-005056b664f8'
p28
g3
sS'c2010526-b484-11e0-b929-005056b664f8'
p29
S'dfba'
p30
sS'e1128dc5-7e4a-11e0-9186-005056b664f8'
p31
S'dfba'
p32
sS'c3c7c717-b47d-11e0-bcdc-005056b644d7'
p33
S'dfba'
p34
sS'8dbf8b8a-b47e-11e0-8e3c-005056b664f8'
p35
S'dfba'
p36
sS'71005c21-b499-11e0-83d9-005056b664f8'
p37
S'dfba'
p38
sS'444c3ef8-9787-11e0-b3a3-005056b664f8'
p39
g23
sS'76ae7eba-8c8d-11e0-84c0-005056b664f8'
p40
S'dfba'
p41
sS'eb4a90b0-8c8d-11e0-b925-005056b664f8'
p42
S'dfba'
p43
sS'956f831c-b495-11e0-a437-005056b644d7'
p44
g11
sS'227e137d-8c8e-11e0-bffe-005056b664f8'
p45
S'dfba'
p46
sS'd52ee57d-9ce6-11e0-b7c0-005056b644d7'
p47
S'dfba'
p48
sS'911fcdfa-9780-11e0-a5f5-005056b664f8'
p49
S'dfba'
p50
sS'47e7c821-8c90-11e0-be58-005056b664f8'
p51
S'dfba'
p52
sS'283a6b66-b499-11e0-bdf3-005056b664f8'
p53
S'dfba'
p54
sS'fbf3bfde-b47e-11e0-887d-005056b664f8'
p55
S'dfba'
p56
sS'b500490c-a417-11e0-b3c4-005056b664f8'
p57
S'dfba'
p58
sS'f8d551a6-7e77-11e0-94cc-005056b664f8'
p59
S'dfba'
p60
sS'6f0561a6-b47e-11e0-8f45-005056b664f8'
p61
S'dfba'
p62
sS'cc012459-9787-11e0-9ca3-005056b664f8'
p63
g13
sS'89f9ef78-9cef-11e0-8dff-005056b644d7'
p64
g48
sS'6aabbdb8-8c96-11e0-bc76-005056b664f8'
p65
g5
sS'1babf957-7e77-11e0-8203-005056b644d7'
p66
S'dfba'
p67
sS'588765fd-b47f-11e0-ba36-005056b664f8'
p68
S'dfba'
p69
sS'65be32b3-b47e-11e0-9de7-005056b664f8'
p70
S'dfba'
p71
sS'88f3e0ee-9780-11e0-8595-005056b664f8'
p72
g50
s.